(dp0
S'enviroument'
p1
(dp2
S'cha'
p3
S'no'
p4
sS'you'
p5
(dp6
S'area'
p7
(dp8
I1
(dp9
S'south'
p10
(dp11
I0
S'yes'
p12
sI1
S'maybe'
p13
sssI3
g13
sI5
(dp14
S'room'
p15
(dp16
I3
(dp17
g10
(dp18
g13
g13
sg12
g12
sssI4
g12
sssssS'liang'
p19
g13
ss.